target datalayout = "e-m:e-p270:32:32-p271:32:32-p272:64:64-i64:64-i128:128-f80:128-n8:16:32:64-S128"
target triple = "x86_64-unknown-linux-gnu"

%class.btOverlappingPairCache = type { %class.btOverlappingPairCallback }
%class.btOverlappingPairCallback = type { ptr }
%class.btAlignedObjectArray = type <{ %class.btAlignedAllocator, [3 x i8], i32, i32, [4 x i8], ptr, i8, [7 x i8] }>
%class.btAlignedAllocator = type { i8 }
%struct.btBroadphasePair = type { ptr, ptr, ptr, %union.anon.4 }
%union.anon.4 = type { ptr }
%struct.btBroadphaseProxy = type <{ ptr, i32, i32, i32, %class.btVector3, %class.btVector3, [4 x i8] }>
%class.btVector3 = type { [4 x float] }
%class.btSortedOverlappingPairCache = type { %class.btOverlappingPairCache, %class.btAlignedObjectArray, i8, i8, ptr, ptr }

; Function Attrs: mustprogress nounwind uwtable
define linkonce_odr dso_local noundef zeroext i1 @_ZeqRK16btBroadphasePairS1_(ptr noundef nonnull align 8 dereferenceable(32) %a, ptr noundef nonnull align 8 dereferenceable(32) %b) #1 comdat {
entry:
  %a.addr = alloca ptr, align 8
  %b.addr = alloca ptr, align 8
  store ptr %a, ptr %a.addr, align 8
  store ptr %b, ptr %b.addr, align 8
  %0 = load ptr, ptr %a.addr, align 8
  %m_pProxy0 = getelementptr inbounds %struct.btBroadphasePair, ptr %0, i32 0, i32 0
  %1 = load ptr, ptr %m_pProxy0, align 8
  %2 = load ptr, ptr %b.addr, align 8
  %m_pProxy01 = getelementptr inbounds %struct.btBroadphasePair, ptr %2, i32 0, i32 0
  %3 = load ptr, ptr %m_pProxy01, align 8
  %cmp = icmp eq ptr %1, %3
  br i1 %cmp, label %land.rhs, label %land.end

land.rhs:                                         ; preds = %entry
  %4 = load ptr, ptr %a.addr, align 8
  %m_pProxy1 = getelementptr inbounds %struct.btBroadphasePair, ptr %4, i32 0, i32 1
  %5 = load ptr, ptr %m_pProxy1, align 8
  %6 = load ptr, ptr %b.addr, align 8
  %m_pProxy12 = getelementptr inbounds %struct.btBroadphasePair, ptr %6, i32 0, i32 1
  %7 = load ptr, ptr %m_pProxy12, align 8
  %cmp3 = icmp eq ptr %5, %7
  br label %land.end

land.end:                                         ; preds = %land.rhs, %entry
  %8 = phi i1 [ false, %entry ], [ %cmp3, %land.rhs ]
  ret i1 %8
}

; Function Attrs: mustprogress nounwind uwtable
define linkonce_odr dso_local void @_ZN20btAlignedObjectArrayI16btBroadphasePairE8pop_backEv(ptr noundef nonnull align 8 dereferenceable(25) %this) #1 comdat align 2 {
entry:
  %this.addr = alloca ptr, align 8
  store ptr %this, ptr %this.addr, align 8
  %this1 = load ptr, ptr %this.addr, align 8
  %m_size = getelementptr inbounds %class.btAlignedObjectArray, ptr %this1, i32 0, i32 2
  %0 = load i32, ptr %m_size, align 4
  %dec = add nsw i32 %0, -1
  store i32 %dec, ptr %m_size, align 4
  ret void
}

; Function Attrs: mustprogress nounwind uwtable
define linkonce_odr dso_local void @_ZN20btAlignedObjectArrayI16btBroadphasePairE4swapEii(ptr noundef nonnull align 8 dereferenceable(25) %this, i32 noundef %index0, i32 noundef %index1) #1 comdat align 2 {
entry:
  %this.addr = alloca ptr, align 8
  %index0.addr = alloca i32, align 4
  %index1.addr = alloca i32, align 4
  %temp = alloca %struct.btBroadphasePair, align 8
  store ptr %this, ptr %this.addr, align 8
  store i32 %index0, ptr %index0.addr, align 4
  store i32 %index1, ptr %index1.addr, align 4
  %this1 = load ptr, ptr %this.addr, align 8
  %m_data = getelementptr inbounds %class.btAlignedObjectArray, ptr %this1, i32 0, i32 5
  %0 = load ptr, ptr %m_data, align 8
  %1 = load i32, ptr %index0.addr, align 4
  %idxprom = sext i32 %1 to i64
  %arrayidx = getelementptr inbounds %struct.btBroadphasePair, ptr %0, i64 %idxprom
  call void @llvm.memcpy.p0.p0.i64(ptr align 8 %temp, ptr align 8 %arrayidx, i64 32, i1 false)
  %m_data2 = getelementptr inbounds %class.btAlignedObjectArray, ptr %this1, i32 0, i32 5
  %2 = load ptr, ptr %m_data2, align 8
  %3 = load i32, ptr %index1.addr, align 4
  %idxprom3 = sext i32 %3 to i64
  %arrayidx4 = getelementptr inbounds %struct.btBroadphasePair, ptr %2, i64 %idxprom3
  %m_data5 = getelementptr inbounds %class.btAlignedObjectArray, ptr %this1, i32 0, i32 5
  %4 = load ptr, ptr %m_data5, align 8
  %5 = load i32, ptr %index0.addr, align 4
  %idxprom6 = sext i32 %5 to i64
  %arrayidx7 = getelementptr inbounds %struct.btBroadphasePair, ptr %4, i64 %idxprom6
  call void @llvm.memcpy.p0.p0.i64(ptr align 8 %arrayidx7, ptr align 8 %arrayidx4, i64 32, i1 false)
  %m_data8 = getelementptr inbounds %class.btAlignedObjectArray, ptr %this1, i32 0, i32 5
  %6 = load ptr, ptr %m_data8, align 8
  %7 = load i32, ptr %index1.addr, align 4
  %idxprom9 = sext i32 %7 to i64
  %arrayidx10 = getelementptr inbounds %struct.btBroadphasePair, ptr %6, i64 %idxprom9
  call void @llvm.memcpy.p0.p0.i64(ptr align 8 %arrayidx10, ptr align 8 %temp, i64 32, i1 false)
  ret void
}

; Function Attrs: mustprogress nounwind uwtable
define linkonce_odr dso_local noundef i32 @_ZNK20btAlignedObjectArrayI16btBroadphasePairE8capacityEv(ptr noundef nonnull align 8 dereferenceable(25) %this) #1 comdat align 2 {
entry:
  %this.addr = alloca ptr, align 8
  store ptr %this, ptr %this.addr, align 8
  %this1 = load ptr, ptr %this.addr, align 8
  %m_capacity = getelementptr inbounds %class.btAlignedObjectArray, ptr %this1, i32 0, i32 3
  %0 = load i32, ptr %m_capacity, align 8
  ret i32 %0
}

; Function Attrs: mustprogress nounwind uwtable
define linkonce_odr dso_local noundef nonnull align 8 dereferenceable(32) ptr @_ZN20btAlignedObjectArrayI16btBroadphasePairEixEi(ptr noundef nonnull align 8 dereferenceable(25) %this, i32 noundef %n) #1 comdat align 2 {
entry:
  %this.addr = alloca ptr, align 8
  %n.addr = alloca i32, align 4
  store ptr %this, ptr %this.addr, align 8
  store i32 %n, ptr %n.addr, align 4
  %this1 = load ptr, ptr %this.addr, align 8
  %m_data = getelementptr inbounds %class.btAlignedObjectArray, ptr %this1, i32 0, i32 5
  %0 = load ptr, ptr %m_data, align 8
  %1 = load i32, ptr %n.addr, align 4
  %idxprom = sext i32 %1 to i64
  %arrayidx = getelementptr inbounds %struct.btBroadphasePair, ptr %0, i64 %idxprom
  ret ptr %arrayidx
}

; Function Attrs: mustprogress nounwind uwtable
define linkonce_odr dso_local noundef i32 @_ZNK20btAlignedObjectArrayI16btBroadphasePairE4sizeEv(ptr noundef nonnull align 8 dereferenceable(25) %this) #1 comdat align 2 {
entry:
  %this.addr = alloca ptr, align 8
  store ptr %this, ptr %this.addr, align 8
  %this1 = load ptr, ptr %this.addr, align 8
  %m_size = getelementptr inbounds %class.btAlignedObjectArray, ptr %this1, i32 0, i32 2
  %0 = load i32, ptr %m_size, align 4
  ret i32 %0
}

; Function Attrs: mustprogress uwtable
define linkonce_odr dso_local noundef i32 @_ZNK20btAlignedObjectArrayI16btBroadphasePairE16findLinearSearchERKS0_(ptr noundef nonnull align 8 dereferenceable(25) %this, ptr noundef nonnull align 8 dereferenceable(32) %key) #2 comdat align 2 {
entry:
  %this.addr = alloca ptr, align 8
  %key.addr = alloca ptr, align 8
  %index = alloca i32, align 4
  %i = alloca i32, align 4
  store ptr %this, ptr %this.addr, align 8
  store ptr %key, ptr %key.addr, align 8
  %this1 = load ptr, ptr %this.addr, align 8
  %call = call noundef i32 @_ZNK20btAlignedObjectArrayI16btBroadphasePairE4sizeEv(ptr noundef nonnull align 8 dereferenceable(25) %this1)
  store i32 %call, ptr %index, align 4
  store i32 0, ptr %i, align 4
  br label %for.cond

for.cond:                                         ; preds = %for.inc, %entry
  %0 = load i32, ptr %i, align 4
  %call2 = call noundef i32 @_ZNK20btAlignedObjectArrayI16btBroadphasePairE4sizeEv(ptr noundef nonnull align 8 dereferenceable(25) %this1)
  %cmp = icmp slt i32 %0, %call2
  br i1 %cmp, label %for.body, label %for.end

for.body:                                         ; preds = %for.cond
  %m_data = getelementptr inbounds %class.btAlignedObjectArray, ptr %this1, i32 0, i32 5
  %1 = load ptr, ptr %m_data, align 8
  %2 = load i32, ptr %i, align 4
  %idxprom = sext i32 %2 to i64
  %arrayidx = getelementptr inbounds %struct.btBroadphasePair, ptr %1, i64 %idxprom
  %3 = load ptr, ptr %key.addr, align 8
  %call3 = call noundef zeroext i1 @_ZeqRK16btBroadphasePairS1_(ptr noundef nonnull align 8 dereferenceable(32) %arrayidx, ptr noundef nonnull align 8 dereferenceable(32) %3)
  br i1 %call3, label %if.then, label %if.end

if.then:                                          ; preds = %for.body
  %4 = load i32, ptr %i, align 4
  store i32 %4, ptr %index, align 4
  br label %for.end

if.end:                                           ; preds = %for.body
  br label %for.inc

for.inc:                                          ; preds = %if.end
  %5 = load i32, ptr %i, align 4
  %inc = add nsw i32 %5, 1
  store i32 %inc, ptr %i, align 4
  br label %for.cond, !llvm.loop !24

for.end:                                          ; preds = %if.then, %for.cond
  %6 = load i32, ptr %index, align 4
  ret i32 %6
}

; Function Attrs: mustprogress nounwind uwtable
define linkonce_odr dso_local void @_ZN16btBroadphasePairC2ER17btBroadphaseProxyS1_(ptr noundef nonnull align 8 dereferenceable(32) %this, ptr noundef nonnull align 8 dereferenceable(52) %proxy0, ptr noundef nonnull align 8 dereferenceable(52) %proxy1) unnamed_addr #1 comdat align 2 {
entry:
  %this.addr = alloca ptr, align 8
  %proxy0.addr = alloca ptr, align 8
  %proxy1.addr = alloca ptr, align 8
  store ptr %this, ptr %this.addr, align 8
  store ptr %proxy0, ptr %proxy0.addr, align 8
  store ptr %proxy1, ptr %proxy1.addr, align 8
  %this1 = load ptr, ptr %this.addr, align 8
  %0 = load ptr, ptr %proxy0.addr, align 8
  %m_uniqueId = getelementptr inbounds %struct.btBroadphaseProxy, ptr %0, i32 0, i32 3
  %1 = load i32, ptr %m_uniqueId, align 8
  %2 = load ptr, ptr %proxy1.addr, align 8
  %m_uniqueId2 = getelementptr inbounds %struct.btBroadphaseProxy, ptr %2, i32 0, i32 3
  %3 = load i32, ptr %m_uniqueId2, align 8
  %cmp = icmp slt i32 %1, %3
  br i1 %cmp, label %if.then, label %if.else

if.then:                                          ; preds = %entry
  %4 = load ptr, ptr %proxy0.addr, align 8
  %m_pProxy0 = getelementptr inbounds %struct.btBroadphasePair, ptr %this1, i32 0, i32 0
  store ptr %4, ptr %m_pProxy0, align 8
  %5 = load ptr, ptr %proxy1.addr, align 8
  %m_pProxy1 = getelementptr inbounds %struct.btBroadphasePair, ptr %this1, i32 0, i32 1
  store ptr %5, ptr %m_pProxy1, align 8
  br label %if.end

if.else:                                          ; preds = %entry
  %6 = load ptr, ptr %proxy1.addr, align 8
  %m_pProxy03 = getelementptr inbounds %struct.btBroadphasePair, ptr %this1, i32 0, i32 0
  store ptr %6, ptr %m_pProxy03, align 8
  %7 = load ptr, ptr %proxy0.addr, align 8
  %m_pProxy14 = getelementptr inbounds %struct.btBroadphasePair, ptr %this1, i32 0, i32 1
  store ptr %7, ptr %m_pProxy14, align 8
  br label %if.end

if.end:                                           ; preds = %if.else, %if.then
  %m_algorithm = getelementptr inbounds %struct.btBroadphasePair, ptr %this1, i32 0, i32 2
  store ptr null, ptr %m_algorithm, align 8
  %8 = getelementptr inbounds %struct.btBroadphasePair, ptr %this1, i32 0, i32 3
  store ptr null, ptr %8, align 8
  ret void
}

; Function Attrs: mustprogress uwtable
define dso_local noundef ptr @_ZN28btSortedOverlappingPairCache21removeOverlappingPairEP17btBroadphaseProxyS1_P12btDispatcher(ptr noundef nonnull align 8 dereferenceable(64) %this, ptr noundef %proxy0, ptr noundef %proxy1, ptr noundef %dispatcher) unnamed_addr #2 align 2 {
entry:
  %retval = alloca ptr, align 8
  %this.addr = alloca ptr, align 8
  %proxy0.addr = alloca ptr, align 8
  %proxy1.addr = alloca ptr, align 8
  %dispatcher.addr = alloca ptr, align 8
  %findPair = alloca %struct.btBroadphasePair, align 8
  %findIndex = alloca i32, align 4
  %pair = alloca ptr, align 8
  %userData = alloca ptr, align 8
  store ptr %this, ptr %this.addr, align 8
  store ptr %proxy0, ptr %proxy0.addr, align 8
  store ptr %proxy1, ptr %proxy1.addr, align 8
  store ptr %dispatcher, ptr %dispatcher.addr, align 8
  %this1 = load ptr, ptr %this.addr, align 8
  %vtable = load ptr, ptr %this1, align 8
  %vfn = getelementptr inbounds ptr, ptr %vtable, i64 17
  %0 = load ptr, ptr %vfn, align 8
  %call = call noundef zeroext i1 %0(ptr noundef nonnull align 8 dereferenceable(64) %this1)
  br i1 %call, label %if.end20, label %if.then

if.then:                                          ; preds = %entry
  %1 = load ptr, ptr %proxy0.addr, align 8
  %2 = load ptr, ptr %proxy1.addr, align 8
  call void @_ZN16btBroadphasePairC2ER17btBroadphaseProxyS1_(ptr noundef nonnull align 8 dereferenceable(32) %findPair, ptr noundef nonnull align 8 dereferenceable(52) %1, ptr noundef nonnull align 8 dereferenceable(52) %2)
  %m_overlappingPairArray = getelementptr inbounds %class.btSortedOverlappingPairCache, ptr %this1, i32 0, i32 1
  %call2 = call noundef i32 @_ZNK20btAlignedObjectArrayI16btBroadphasePairE16findLinearSearchERKS0_(ptr noundef nonnull align 8 dereferenceable(25) %m_overlappingPairArray, ptr noundef nonnull align 8 dereferenceable(32) %findPair)
  store i32 %call2, ptr %findIndex, align 4
  %3 = load i32, ptr %findIndex, align 4
  %m_overlappingPairArray3 = getelementptr inbounds %class.btSortedOverlappingPairCache, ptr %this1, i32 0, i32 1
  %call4 = call noundef i32 @_ZNK20btAlignedObjectArrayI16btBroadphasePairE4sizeEv(ptr noundef nonnull align 8 dereferenceable(25) %m_overlappingPairArray3)
  %cmp = icmp slt i32 %3, %call4
  br i1 %cmp, label %if.then5, label %if.end19

if.then5:                                         ; preds = %if.then
  %m_overlappingPairArray6 = getelementptr inbounds %class.btSortedOverlappingPairCache, ptr %this1, i32 0, i32 1
  %4 = load i32, ptr %findIndex, align 4
  %call7 = call noundef nonnull align 8 dereferenceable(32) ptr @_ZN20btAlignedObjectArrayI16btBroadphasePairEixEi(ptr noundef nonnull align 8 dereferenceable(25) %m_overlappingPairArray6, i32 noundef %4)
  store ptr %call7, ptr %pair, align 8
  %5 = load ptr, ptr %pair, align 8
  %6 = getelementptr inbounds %struct.btBroadphasePair, ptr %5, i32 0, i32 3
  %7 = load ptr, ptr %6, align 8
  store ptr %7, ptr %userData, align 8
  %8 = load ptr, ptr %pair, align 8
  %9 = load ptr, ptr %dispatcher.addr, align 8
  %vtable8 = load ptr, ptr %this1, align 8
  %vfn9 = getelementptr inbounds ptr, ptr %vtable8, i64 8
  %10 = load ptr, ptr %vfn9, align 8
  call void %10(ptr noundef nonnull align 8 dereferenceable(64) %this1, ptr noundef nonnull align 8 dereferenceable(32) %8, ptr noundef %9)
  %m_ghostPairCallback = getelementptr inbounds %class.btSortedOverlappingPairCache, ptr %this1, i32 0, i32 5
  %11 = load ptr, ptr %m_ghostPairCallback, align 8
  %tobool = icmp ne ptr %11, null
  br i1 %tobool, label %if.then10, label %if.end

if.then10:                                        ; preds = %if.then5
  %m_ghostPairCallback11 = getelementptr inbounds %class.btSortedOverlappingPairCache, ptr %this1, i32 0, i32 5
  %12 = load ptr, ptr %m_ghostPairCallback11, align 8
  %13 = load ptr, ptr %proxy0.addr, align 8
  %14 = load ptr, ptr %proxy1.addr, align 8
  %15 = load ptr, ptr %dispatcher.addr, align 8
  %vtable12 = load ptr, ptr %12, align 8
  %vfn13 = getelementptr inbounds ptr, ptr %vtable12, i64 3
  %16 = load ptr, ptr %vfn13, align 8
  %call14 = call noundef ptr %16(ptr noundef nonnull align 8 dereferenceable(8) %12, ptr noundef %13, ptr noundef %14, ptr noundef %15)
  br label %if.end

if.end:                                           ; preds = %if.then10, %if.then5
  %m_overlappingPairArray15 = getelementptr inbounds %class.btSortedOverlappingPairCache, ptr %this1, i32 0, i32 1
  %17 = load i32, ptr %findIndex, align 4
  %m_overlappingPairArray16 = getelementptr inbounds %class.btSortedOverlappingPairCache, ptr %this1, i32 0, i32 1
  %call17 = call noundef i32 @_ZNK20btAlignedObjectArrayI16btBroadphasePairE8capacityEv(ptr noundef nonnull align 8 dereferenceable(25) %m_overlappingPairArray16)
  %sub = sub nsw i32 %call17, 1
  call void @_ZN20btAlignedObjectArrayI16btBroadphasePairE4swapEii(ptr noundef nonnull align 8 dereferenceable(25) %m_overlappingPairArray15, i32 noundef %17, i32 noundef %sub)
  %m_overlappingPairArray18 = getelementptr inbounds %class.btSortedOverlappingPairCache, ptr %this1, i32 0, i32 1
  call void @_ZN20btAlignedObjectArrayI16btBroadphasePairE8pop_backEv(ptr noundef nonnull align 8 dereferenceable(25) %m_overlappingPairArray18)
  %18 = load ptr, ptr %userData, align 8
  store ptr %18, ptr %retval, align 8
  br label %return

if.end19:                                         ; preds = %if.then
  br label %if.end20

if.end20:                                         ; preds = %if.end19, %entry
  store ptr null, ptr %retval, align 8
  br label %return

return:                                           ; preds = %if.end20, %if.end
  %19 = load ptr, ptr %retval, align 8
  ret ptr %19
}