; Function Attrs: mustprogress uwtable
define dso_local noundef ptr @_ZN28btSortedOverlappingPairCache21removeOverlappingPairEP17btBroadphaseProxyS1_P12btDispatcher(ptr noundef nonnull align 8 dereferenceable(64) %this, ptr noundef %proxy0, ptr noundef %proxy1, ptr noundef %dispatcher) unnamed_addr #0 align 2 {
entry:
  %temp.i = alloca %struct.btBroadphasePair, align 8
  %vtable = load ptr, ptr %this, align 8
  %vfn = getelementptr inbounds i8, ptr %vtable, i64 136
  %0 = load ptr, ptr %vfn, align 8
  %call = tail call noundef zeroext i1 %0(ptr noundef nonnull align 8 dereferenceable(64) %this)
  br i1 %call, label %return, label %if.then

if.then:                                          ; preds = %entry
  %m_uniqueId.i = getelementptr inbounds i8, ptr %proxy0, i64 16
  %1 = load i32, ptr %m_uniqueId.i, align 8
  %m_uniqueId2.i = getelementptr inbounds i8, ptr %proxy1, i64 16
  %2 = load i32, ptr %m_uniqueId2.i, align 8
  %cmp.i = icmp slt i32 %1, %2
  %spec.select.i = select i1 %cmp.i, ptr %proxy0, ptr %proxy1
  %spec.select5.i = select i1 %cmp.i, ptr %proxy1, ptr %proxy0
  %m_size.i.i = getelementptr inbounds i8, ptr %this, i64 12
  %3 = load i32, ptr %m_size.i.i, align 4
  %cmp5.i = icmp sgt i32 %3, 0
  br i1 %cmp5.i, label %for.body.lr.ph.i, label %return

for.body.lr.ph.i:                                 ; preds = %if.then
  %m_data.i = getelementptr inbounds i8, ptr %this, i64 24
  %4 = load ptr, ptr %m_data.i, align 8
  %wide.trip.count.i = zext nneg i32 %3 to i64
  br label %for.body.i

for.body.i:                                       ; preds = %for.inc.i, %for.body.lr.ph.i
  %indvars.iv.i = phi i64 [ 0, %for.body.lr.ph.i ], [ %indvars.iv.next.i, %for.inc.i ]
  %arrayidx.i = getelementptr inbounds %struct.btBroadphasePair, ptr %4, i64 %indvars.iv.i
  %5 = load ptr, ptr %arrayidx.i, align 8
  %cmp.i.i = icmp eq ptr %5, %spec.select.i
  %m_pProxy1.i.i = getelementptr inbounds i8, ptr %arrayidx.i, i64 8
  %6 = load ptr, ptr %m_pProxy1.i.i, align 8
  %cmp3.i.i = icmp eq ptr %6, %spec.select5.i
  %7 = select i1 %cmp.i.i, i1 %cmp3.i.i, i1 false
  br i1 %7, label %_ZNK20btAlignedObjectArrayI16btBroadphasePairE16findLinearSearchERKS0_.exit, label %for.inc.i

for.inc.i:                                        ; preds = %for.body.i
  %indvars.iv.next.i = add nuw nsw i64 %indvars.iv.i, 1
  %exitcond.not.i = icmp eq i64 %indvars.iv.next.i, %wide.trip.count.i
  br i1 %exitcond.not.i, label %return, label %for.body.i, !llvm.loop !25

_ZNK20btAlignedObjectArrayI16btBroadphasePairE16findLinearSearchERKS0_.exit: ; preds = %for.body.i
  %8 = trunc i64 %indvars.iv.i to i32
  %cmp = icmp sgt i32 %3, %8
  br i1 %cmp, label %if.then5, label %return

if.then5:                                         ; preds = %_ZNK20btAlignedObjectArrayI16btBroadphasePairE16findLinearSearchERKS0_.exit
  %sext = shl i64 %indvars.iv.i, 32
  %idxprom.i = ashr exact i64 %sext, 32
  %arrayidx.i8 = getelementptr inbounds %struct.btBroadphasePair, ptr %4, i64 %idxprom.i
  %9 = getelementptr inbounds i8, ptr %arrayidx.i8, i64 24
  %10 = load ptr, ptr %9, align 8
  %vtable8 = load ptr, ptr %this, align 8
  %vfn9 = getelementptr inbounds i8, ptr %vtable8, i64 64
  %11 = load ptr, ptr %vfn9, align 8
  tail call void %11(ptr noundef nonnull align 8 dereferenceable(64) %this, ptr noundef nonnull align 8 dereferenceable(32) %arrayidx.i8, ptr noundef %dispatcher)
  %m_ghostPairCallback = getelementptr inbounds i8, ptr %this, i64 56
  %12 = load ptr, ptr %m_ghostPairCallback, align 8
  %tobool.not = icmp eq ptr %12, null
  br i1 %tobool.not, label %if.end, label %if.then10

if.then10:                                        ; preds = %if.then5
  %vtable12 = load ptr, ptr %12, align 8
  %vfn13 = getelementptr inbounds i8, ptr %vtable12, i64 24
  %13 = load ptr, ptr %vfn13, align 8
  %call14 = tail call noundef ptr %13(ptr noundef nonnull align 8 dereferenceable(8) %12, ptr noundef nonnull %proxy0, ptr noundef nonnull %proxy1, ptr noundef %dispatcher)
  br label %if.end

if.end:                                           ; preds = %if.then10, %if.then5
  %m_capacity.i = getelementptr inbounds i8, ptr %this, i64 16
  %14 = load i32, ptr %m_capacity.i, align 8
  %sub = add nsw i32 %14, -1
  call void @llvm.lifetime.start.p0(i64 32, ptr nonnull %temp.i)
  %15 = load ptr, ptr %m_data.i, align 8
  %arrayidx.i11 = getelementptr inbounds %struct.btBroadphasePair, ptr %15, i64 %idxprom.i
  call void @llvm.memcpy.p0.p0.i64(ptr noundef nonnull align 8 dereferenceable(32) %temp.i, ptr noundef nonnull align 8 dereferenceable(32) %arrayidx.i11, i64 32, i1 false)
  %idxprom3.i = sext i32 %sub to i64
  %arrayidx4.i = getelementptr inbounds %struct.btBroadphasePair, ptr %15, i64 %idxprom3.i
  tail call void @llvm.memcpy.p0.p0.i64(ptr noundef nonnull align 8 dereferenceable(32) %arrayidx.i11, ptr noundef nonnull align 8 dereferenceable(32) %arrayidx4.i, i64 32, i1 false)
  %16 = load ptr, ptr %m_data.i, align 8
  %arrayidx10.i = getelementptr inbounds %struct.btBroadphasePair, ptr %16, i64 %idxprom3.i
  call void @llvm.memcpy.p0.p0.i64(ptr noundef nonnull align 8 dereferenceable(32) %arrayidx10.i, ptr noundef nonnull align 8 dereferenceable(32) %temp.i, i64 32, i1 false)
  call void @llvm.lifetime.end.p0(i64 32, ptr nonnull %temp.i)
  %17 = load i32, ptr %m_size.i.i, align 4
  %dec.i = add nsw i32 %17, -1
  store i32 %dec.i, ptr %m_size.i.i, align 4
  br label %return

return:                                           ; preds = %for.inc.i, %if.then, %entry, %_ZNK20btAlignedObjectArrayI16btBroadphasePairE16findLinearSearchERKS0_.exit, %if.end
  %retval.0 = phi ptr [ %10, %if.end ], [ null, %_ZNK20btAlignedObjectArrayI16btBroadphasePairE16findLinearSearchERKS0_.exit ], [ null, %entry ], [ null, %if.then ], [ null, %for.inc.i ]
  ret ptr %retval.0
}